; ModuleID = '40/1280.c'
source_filename = "40/1280.c"
target datalayout = "e-m:e-p270:32:32-p271:32:32-p272:64:64-i64:64-f80:128-n8:16:32:64-S128"
target triple = "x86_64-pc-linux-gnu"

@.str = private unnamed_addr constant [4 x i8] c"%lf\00", align 1
@.str.1 = private unnamed_addr constant [7 x i8] c"%.4lf\0A\00", align 1
@.str.2 = private unnamed_addr constant [15 x i8] c"Invalid input\0A\00", align 1

; Function Attrs: noinline nounwind uwtable
define dso_local void @main() #0 {
  %1 = alloca double, align 8
  %2 = alloca double, align 8
  %3 = alloca double, align 8
  %4 = alloca double, align 8
  %5 = alloca double, align 8
  %6 = alloca double, align 8
  %7 = alloca double, align 8
  %8 = call i32 (i8*, ...) @__isoc99_scanf(i8* getelementptr inbounds ([4 x i8], [4 x i8]* @.str, i64 0, i64 0), double* %1)
  %9 = call i32 (i8*, ...) @__isoc99_scanf(i8* getelementptr inbounds ([4 x i8], [4 x i8]* @.str, i64 0, i64 0), double* %2)
  %10 = call i32 (i8*, ...) @__isoc99_scanf(i8* getelementptr inbounds ([4 x i8], [4 x i8]* @.str, i64 0, i64 0), double* %3)
  %11 = call i32 (i8*, ...) @__isoc99_scanf(i8* getelementptr inbounds ([4 x i8], [4 x i8]* @.str, i64 0, i64 0), double* %4)
  %12 = call i32 (i8*, ...) @__isoc99_scanf(i8* getelementptr inbounds ([4 x i8], [4 x i8]* @.str, i64 0, i64 0), double* %5)
  %13 = load double, double* %1, align 8
  %14 = load double, double* %2, align 8
  %15 = fadd double %13, %14
  %16 = load double, double* %3, align 8
  %17 = fadd double %15, %16
  %18 = load double, double* %4, align 8
  %19 = fadd double %17, %18
  %20 = fdiv double %19, 2.000000e+00
  store double %20, double* %6, align 8
  %21 = load double, double* %5, align 8
  %22 = fdiv double %21, 2.000000e+00
  store double %22, double* %5, align 8
  %23 = load double, double* %5, align 8
  %24 = fmul double %23, 1.000000e+02
  %25 = fdiv double %24, 1.800000e+02
  store double %25, double* %5, align 8
  %26 = load double, double* %6, align 8
  %27 = load double, double* %1, align 8
  %28 = fsub double %26, %27
  %29 = load double, double* %6, align 8
  %30 = load double, double* %2, align 8
  %31 = fsub double %29, %30
  %32 = fmul double %28, %31
  %33 = load double, double* %6, align 8
  %34 = load double, double* %3, align 8
  %35 = fsub double %33, %34
  %36 = fmul double %32, %35
  %37 = load double, double* %6, align 8
  %38 = load double, double* %4, align 8
  %39 = fsub double %37, %38
  %40 = fmul double %36, %39
  %41 = load double, double* %1, align 8
  %42 = load double, double* %2, align 8
  %43 = fmul double %41, %42
  %44 = load double, double* %3, align 8
  %45 = fmul double %43, %44
  %46 = load double, double* %4, align 8
  %47 = fmul double %45, %46
  %48 = load double, double* %5, align 8
  %49 = call double @cos(double %48) #3
  %50 = fmul double %47, %49
  %51 = load double, double* %5, align 8
  %52 = call double @cos(double %51) #3
  %53 = fmul double %50, %52
  %54 = fsub double %40, %53
  %55 = call double @sqrt(double %54) #3
  store double %55, double* %7, align 8
  %56 = load double, double* %6, align 8
  %57 = load double, double* %1, align 8
  %58 = fsub double %56, %57
  %59 = load double, double* %6, align 8
  %60 = load double, double* %2, align 8
  %61 = fsub double %59, %60
  %62 = fmul double %58, %61
  %63 = load double, double* %6, align 8
  %64 = load double, double* %3, align 8
  %65 = fsub double %63, %64
  %66 = fmul double %62, %65
  %67 = load double, double* %6, align 8
  %68 = load double, double* %4, align 8
  %69 = fsub double %67, %68
  %70 = fmul double %66, %69
  %71 = load double, double* %1, align 8
  %72 = load double, double* %2, align 8
  %73 = fmul double %71, %72
  %74 = load double, double* %3, align 8
  %75 = fmul double %73, %74
  %76 = load double, double* %4, align 8
  %77 = fmul double %75, %76
  %78 = load double, double* %5, align 8
  %79 = call double @cos(double %78) #3
  %80 = fmul double %77, %79
  %81 = load double, double* %5, align 8
  %82 = call double @cos(double %81) #3
  %83 = fmul double %80, %82
  %84 = fsub double %70, %83
  %85 = fcmp ogt double %84, 0.000000e+00
  br i1 %85, label %86, label %89

86:                                               ; preds = %0
  %87 = load double, double* %7, align 8
  %88 = call i32 (i8*, ...) @printf(i8* getelementptr inbounds ([7 x i8], [7 x i8]* @.str.1, i64 0, i64 0), double %87)
  br label %91

89:                                               ; preds = %0
  %90 = call i32 (i8*, ...) @printf(i8* getelementptr inbounds ([15 x i8], [15 x i8]* @.str.2, i64 0, i64 0))
  br label %91

91:                                               ; preds = %89, %86
  ret void
}

declare dso_local i32 @__isoc99_scanf(i8*, ...) #1

; Function Attrs: nounwind
declare dso_local double @sqrt(double) #2

; Function Attrs: nounwind
declare dso_local double @cos(double) #2

declare dso_local i32 @printf(i8*, ...) #1


!llvm.module.flags = !{!0}
!llvm.ident = !{!1}

!0 = !{i32 1, !"wchar_size", i32 4}
!1 = !{!"clang version 10.0.0-4ubuntu1 "}
